target datalayout = "e-m:e-p270:32:32-p271:32:32-p272:64:64-i64:64-i128:128-f80:128-n8:16:32:64-S128"
target triple = "x86_64-pc-linux-gnu"

%struct.mbedtls_cipher_context_t = type { ptr, i32, i32, ptr, ptr, [16 x i8], i64, [16 x i8], i64, ptr, ptr }
%struct.mbedtls_cmac_context_t = type { [16 x i8], [16 x i8], i64 }
%struct.mbedtls_cipher_info_t = type { ptr, i32 }

; Function Attrs: alwaysinline nounwind uwtable
define internal void @mbedtls_put_unaligned_uint64(ptr noundef %0, i64 noundef %1) #7 {
  %3 = alloca ptr, align 8
  %4 = alloca i64, align 8
  store ptr %0, ptr %3, align 8, !tbaa !36
  store i64 %1, ptr %4, align 8, !tbaa !10
  %5 = load ptr, ptr %3, align 8, !tbaa !36
  call void @llvm.memcpy.p0.p0.i64(ptr align 1 %5, ptr align 8 %4, i64 8, i1 false)
  ret void
}

; Function Attrs: alwaysinline nounwind uwtable
define internal i64 @mbedtls_get_unaligned_uint64(ptr noundef %0) #7 {
  %2 = alloca ptr, align 8
  %3 = alloca i64, align 8
  store ptr %0, ptr %2, align 8, !tbaa !36
  call void @llvm.lifetime.start.p0(i64 8, ptr %3) #11
  %4 = load ptr, ptr %2, align 8, !tbaa !36
  call void @llvm.memcpy.p0.p0.i64(ptr align 8 %3, ptr align 1 %4, i64 8, i1 false)
  %5 = load i64, ptr %3, align 8, !tbaa !10
  call void @llvm.lifetime.end.p0(i64 8, ptr %3) #11
  ret i64 %5
}

; Function Attrs: alwaysinline nounwind uwtable
define internal void @mbedtls_xor(ptr noundef %0, ptr noundef %1, ptr noundef %2, i64 noundef %3) #7 {
  %5 = alloca ptr, align 8
  %6 = alloca ptr, align 8
  %7 = alloca ptr, align 8
  %8 = alloca i64, align 8
  %9 = alloca i64, align 8
  %10 = alloca i64, align 8
  store ptr %0, ptr %5, align 8, !tbaa !8
  store ptr %1, ptr %6, align 8, !tbaa !8
  store ptr %2, ptr %7, align 8, !tbaa !8
  store i64 %3, ptr %8, align 8, !tbaa !10
  call void @llvm.lifetime.start.p0(i64 8, ptr %9) #11
  store i64 0, ptr %9, align 8, !tbaa !10
  br label %11

11:                                               ; preds = %30, %4
  %12 = load i64, ptr %9, align 8, !tbaa !10
  %13 = add i64 %12, 8
  %14 = load i64, ptr %8, align 8, !tbaa !10
  %15 = icmp ule i64 %13, %14
  br i1 %15, label %16, label %33

16:                                               ; preds = %11
  call void @llvm.lifetime.start.p0(i64 8, ptr %10) #11
  %17 = load ptr, ptr %6, align 8, !tbaa !8
  %18 = load i64, ptr %9, align 8, !tbaa !10
  %19 = getelementptr inbounds nuw i8, ptr %17, i64 %18
  %20 = call i64 @mbedtls_get_unaligned_uint64(ptr noundef %19)
  %21 = load ptr, ptr %7, align 8, !tbaa !8
  %22 = load i64, ptr %9, align 8, !tbaa !10
  %23 = getelementptr inbounds nuw i8, ptr %21, i64 %22
  %24 = call i64 @mbedtls_get_unaligned_uint64(ptr noundef %23)
  %25 = xor i64 %20, %24
  store i64 %25, ptr %10, align 8, !tbaa !10
  %26 = load ptr, ptr %5, align 8, !tbaa !8
  %27 = load i64, ptr %9, align 8, !tbaa !10
  %28 = getelementptr inbounds nuw i8, ptr %26, i64 %27
  %29 = load i64, ptr %10, align 8, !tbaa !10
  call void @mbedtls_put_unaligned_uint64(ptr noundef %28, i64 noundef %29)
  call void @llvm.lifetime.end.p0(i64 8, ptr %10) #11
  br label %30

30:                                               ; preds = %16
  %31 = load i64, ptr %9, align 8, !tbaa !10
  %32 = add i64 %31, 8
  store i64 %32, ptr %9, align 8, !tbaa !10
  br label %11, !llvm.loop !29

33:                                               ; preds = %11
  br label %34

34:                                               ; preds = %54, %33
  %35 = load i64, ptr %9, align 8, !tbaa !10
  %36 = load i64, ptr %8, align 8, !tbaa !10
  %37 = icmp ult i64 %35, %36
  br i1 %37, label %38, label %57

38:                                               ; preds = %34
  %39 = load ptr, ptr %6, align 8, !tbaa !8
  %40 = load i64, ptr %9, align 8, !tbaa !10
  %41 = getelementptr inbounds nuw i8, ptr %39, i64 %40
  %42 = load i8, ptr %41, align 1, !tbaa !26
  %43 = zext i8 %42 to i32
  %44 = load ptr, ptr %7, align 8, !tbaa !8
  %45 = load i64, ptr %9, align 8, !tbaa !10
  %46 = getelementptr inbounds nuw i8, ptr %44, i64 %45
  %47 = load i8, ptr %46, align 1, !tbaa !26
  %48 = zext i8 %47 to i32
  %49 = xor i32 %43, %48
  %50 = trunc i32 %49 to i8
  %51 = load ptr, ptr %5, align 8, !tbaa !8
  %52 = load i64, ptr %9, align 8, !tbaa !10
  %53 = getelementptr inbounds nuw i8, ptr %51, i64 %52
  store i8 %50, ptr %53, align 1, !tbaa !26
  br label %54

54:                                               ; preds = %38
  %55 = load i64, ptr %9, align 8, !tbaa !10
  %56 = add i64 %55, 1
  store i64 %56, ptr %9, align 8, !tbaa !10
  br label %34, !llvm.loop !30

57:                                               ; preds = %34
  call void @llvm.lifetime.end.p0(i64 8, ptr %9) #11
  ret void
}

; Function Attrs: nounwind uwtable
define internal void @cmac_pad(ptr noundef %0, i64 noundef %1, ptr noundef %2, i64 noundef %3) #0 {
  %5 = alloca ptr, align 8
  %6 = alloca i64, align 8
  %7 = alloca ptr, align 8
  %8 = alloca i64, align 8
  %9 = alloca i64, align 8
  store ptr %0, ptr %5, align 8, !tbaa !8
  store i64 %1, ptr %6, align 8, !tbaa !10
  store ptr %2, ptr %7, align 8, !tbaa !8
  store i64 %3, ptr %8, align 8, !tbaa !10
  call void @llvm.lifetime.start.p0(i64 8, ptr %9) #11
  store i64 0, ptr %9, align 8, !tbaa !10
  br label %10

10:                                               ; preds = %40, %4
  %11 = load i64, ptr %9, align 8, !tbaa !10
  %12 = load i64, ptr %6, align 8, !tbaa !10
  %13 = icmp ult i64 %11, %12
  br i1 %13, label %14, label %43

14:                                               ; preds = %10
  %15 = load i64, ptr %9, align 8, !tbaa !10
  %16 = load i64, ptr %8, align 8, !tbaa !10
  %17 = icmp ult i64 %15, %16
  br i1 %17, label %18, label %26

18:                                               ; preds = %14
  %19 = load ptr, ptr %7, align 8, !tbaa !8
  %20 = load i64, ptr %9, align 8, !tbaa !10
  %21 = getelementptr inbounds nuw i8, ptr %19, i64 %20
  %22 = load i8, ptr %21, align 1, !tbaa !26
  %23 = load ptr, ptr %5, align 8, !tbaa !8
  %24 = load i64, ptr %9, align 8, !tbaa !10
  %25 = getelementptr inbounds nuw i8, ptr %23, i64 %24
  store i8 %22, ptr %25, align 1, !tbaa !26
  br label %39

26:                                               ; preds = %14
  %27 = load i64, ptr %9, align 8, !tbaa !10
  %28 = load i64, ptr %8, align 8, !tbaa !10
  %29 = icmp eq i64 %27, %28
  br i1 %29, label %30, label %34

30:                                               ; preds = %26
  %31 = load ptr, ptr %5, align 8, !tbaa !8
  %32 = load i64, ptr %9, align 8, !tbaa !10
  %33 = getelementptr inbounds nuw i8, ptr %31, i64 %32
  store i8 -128, ptr %33, align 1, !tbaa !26
  br label %38

34:                                               ; preds = %26
  %35 = load ptr, ptr %5, align 8, !tbaa !8
  %36 = load i64, ptr %9, align 8, !tbaa !10
  %37 = getelementptr inbounds nuw i8, ptr %35, i64 %36
  store i8 0, ptr %37, align 1, !tbaa !26
  br label %38

38:                                               ; preds = %34, %30
  br label %39

39:                                               ; preds = %38, %18
  br label %40

40:                                               ; preds = %39
  %41 = load i64, ptr %9, align 8, !tbaa !10
  %42 = add i64 %41, 1
  store i64 %42, ptr %9, align 8, !tbaa !10
  br label %10, !llvm.loop !28

43:                                               ; preds = %10
  call void @llvm.lifetime.end.p0(i64 8, ptr %9) #11
  ret void
}

; Function Attrs: inlinehint nounwind uwtable
define internal i64 @mbedtls_cipher_info_get_block_size(ptr noundef %0) #3 {
  %2 = alloca i64, align 8
  %3 = alloca ptr, align 8
  store ptr %0, ptr %3, align 8, !tbaa !20
  %4 = load ptr, ptr %3, align 8, !tbaa !20
  %5 = icmp eq ptr %4, null
  br i1 %5, label %6, label %7

6:                                                ; preds = %1
  store i64 0, ptr %2, align 8
  br label %13

7:                                                ; preds = %1
  %8 = load ptr, ptr %3, align 8, !tbaa !20
  %9 = getelementptr inbounds nuw %struct.mbedtls_cipher_info_t, ptr %8, i32 0, i32 1
  %10 = load i32, ptr %9, align 8
  %11 = and i32 %10, 31
  %12 = zext i32 %11 to i64
  store i64 %12, ptr %2, align 8
  br label %13

13:                                               ; preds = %7, %6
  %14 = load i64, ptr %2, align 8
  ret i64 %14
}

; Function Attrs: nounwind uwtable
define hidden i32 @mbedtls_cipher_cmac_finish(ptr noundef %0, ptr noundef %1) #0 {
  %3 = alloca i32, align 4
  %4 = alloca ptr, align 8
  %5 = alloca ptr, align 8
  %6 = alloca ptr, align 8
  %7 = alloca ptr, align 8
  %8 = alloca ptr, align 8
  %9 = alloca [16 x i8], align 16
  %10 = alloca [16 x i8], align 16
  %11 = alloca [16 x i8], align 16
  %12 = alloca i32, align 4
  %13 = alloca i64, align 8
  %14 = alloca i64, align 8
  %15 = alloca i32, align 4
  store ptr %0, ptr %4, align 8, !tbaa !3
  store ptr %1, ptr %5, align 8, !tbaa !8
  call void @llvm.lifetime.start.p0(i64 8, ptr %6) #11
  call void @llvm.lifetime.start.p0(i64 8, ptr %7) #11
  call void @llvm.lifetime.start.p0(i64 8, ptr %8) #11
  call void @llvm.lifetime.start.p0(i64 16, ptr %9) #11
  call void @llvm.lifetime.start.p0(i64 16, ptr %10) #11
  call void @llvm.lifetime.start.p0(i64 16, ptr %11) #11
  call void @llvm.lifetime.start.p0(i64 4, ptr %12) #11
  store i32 -110, ptr %12, align 4, !tbaa !17
  call void @llvm.lifetime.start.p0(i64 8, ptr %13) #11
  call void @llvm.lifetime.start.p0(i64 8, ptr %14) #11
  %16 = load ptr, ptr %4, align 8, !tbaa !3
  %17 = icmp eq ptr %16, null
  br i1 %17, label %31, label %18

18:                                               ; preds = %2
  %19 = load ptr, ptr %4, align 8, !tbaa !3
  %20 = getelementptr inbounds nuw %struct.mbedtls_cipher_context_t, ptr %19, i32 0, i32 0
  %21 = load ptr, ptr %20, align 8, !tbaa !12
  %22 = icmp eq ptr %21, null
  br i1 %22, label %31, label %23

23:                                               ; preds = %18
  %24 = load ptr, ptr %4, align 8, !tbaa !3
  %25 = getelementptr inbounds nuw %struct.mbedtls_cipher_context_t, ptr %24, i32 0, i32 10
  %26 = load ptr, ptr %25, align 8, !tbaa !19
  %27 = icmp eq ptr %26, null
  br i1 %27, label %31, label %28

28:                                               ; preds = %23
  %29 = load ptr, ptr %5, align 8, !tbaa !8
  %30 = icmp eq ptr %29, null
  br i1 %30, label %31, label %32

31:                                               ; preds = %28, %23, %18, %2
  store i32 -24832, ptr %3, align 4
  store i32 1, ptr %15, align 4
  br label %101

32:                                               ; preds = %28
  %33 = load ptr, ptr %4, align 8, !tbaa !3
  %34 = getelementptr inbounds nuw %struct.mbedtls_cipher_context_t, ptr %33, i32 0, i32 10
  %35 = load ptr, ptr %34, align 8, !tbaa !19
  store ptr %35, ptr %6, align 8, !tbaa !18
  %36 = load ptr, ptr %4, align 8, !tbaa !3
  %37 = getelementptr inbounds nuw %struct.mbedtls_cipher_context_t, ptr %36, i32 0, i32 0
  %38 = load ptr, ptr %37, align 8, !tbaa !12
  %39 = call i64 @mbedtls_cipher_info_get_block_size(ptr noundef %38)
  store i64 %39, ptr %14, align 8, !tbaa !10
  %40 = load i64, ptr %14, align 8, !tbaa !10
  %41 = icmp ule i64 %40, 16
  call void @llvm.assume(i1 %41)
  %42 = load ptr, ptr %6, align 8, !tbaa !18
  %43 = getelementptr inbounds nuw %struct.mbedtls_cmac_context_t, ptr %42, i32 0, i32 0
  %44 = getelementptr inbounds [16 x i8], ptr %43, i64 0, i64 0
  store ptr %44, ptr %7, align 8, !tbaa !8
  %45 = getelementptr inbounds [16 x i8], ptr %9, i64 0, i64 0
  call void @mbedtls_platform_zeroize(ptr noundef %45, i64 noundef 16)
  %46 = getelementptr inbounds [16 x i8], ptr %10, i64 0, i64 0
  call void @mbedtls_platform_zeroize(ptr noundef %46, i64 noundef 16)
  %47 = load ptr, ptr %4, align 8, !tbaa !3
  %48 = getelementptr inbounds [16 x i8], ptr %9, i64 0, i64 0
  %49 = getelementptr inbounds [16 x i8], ptr %10, i64 0, i64 0
  %50 = call i32 @cmac_generate_subkeys(ptr noundef %47, ptr noundef %48, ptr noundef %49)
  %51 = load ptr, ptr %6, align 8, !tbaa !18
  %52 = getelementptr inbounds nuw %struct.mbedtls_cmac_context_t, ptr %51, i32 0, i32 1
  %53 = getelementptr inbounds [16 x i8], ptr %52, i64 0, i64 0
  store ptr %53, ptr %8, align 8, !tbaa !8
  %54 = load ptr, ptr %6, align 8, !tbaa !18
  %55 = getelementptr inbounds nuw %struct.mbedtls_cmac_context_t, ptr %54, i32 0, i32 2
  %56 = load i64, ptr %55, align 8, !tbaa !21
  %57 = load i64, ptr %14, align 8, !tbaa !10
  %58 = icmp ult i64 %56, %57
  br i1 %58, label %59, label %70

59:                                               ; preds = %32
  %60 = getelementptr inbounds [16 x i8], ptr %11, i64 0, i64 0
  %61 = load i64, ptr %14, align 8, !tbaa !10
  %62 = load ptr, ptr %8, align 8, !tbaa !8
  %63 = load ptr, ptr %6, align 8, !tbaa !18
  %64 = getelementptr inbounds nuw %struct.mbedtls_cmac_context_t, ptr %63, i32 0, i32 2
  %65 = load i64, ptr %64, align 8, !tbaa !21
  call void @cmac_pad(ptr noundef %60, i64 noundef %61, ptr noundef %62, i64 noundef %65)
  %66 = getelementptr inbounds [16 x i8], ptr %11, i64 0, i64 0
  %67 = getelementptr inbounds [16 x i8], ptr %11, i64 0, i64 0
  %68 = getelementptr inbounds [16 x i8], ptr %10, i64 0, i64 0
  %69 = load i64, ptr %14, align 8, !tbaa !10
  call void @mbedtls_xor(ptr noundef %66, ptr noundef %67, ptr noundef %68, i64 noundef %69)
  br label %75

70:                                               ; preds = %32
  %71 = getelementptr inbounds [16 x i8], ptr %11, i64 0, i64 0
  %72 = load ptr, ptr %8, align 8, !tbaa !8
  %73 = getelementptr inbounds [16 x i8], ptr %9, i64 0, i64 0
  %74 = load i64, ptr %14, align 8, !tbaa !10
  call void @mbedtls_xor(ptr noundef %71, ptr noundef %72, ptr noundef %73, i64 noundef %74)
  br label %75

75:                                               ; preds = %70, %59
  %76 = load ptr, ptr %7, align 8, !tbaa !8
  %77 = getelementptr inbounds [16 x i8], ptr %11, i64 0, i64 0
  %78 = load ptr, ptr %7, align 8, !tbaa !8
  %79 = load i64, ptr %14, align 8, !tbaa !10
  call void @mbedtls_xor(ptr noundef %76, ptr noundef %77, ptr noundef %78, i64 noundef %79)
  %80 = load ptr, ptr %4, align 8, !tbaa !3
  %81 = load ptr, ptr %7, align 8, !tbaa !8
  %82 = load i64, ptr %14, align 8, !tbaa !10
  %83 = load ptr, ptr %7, align 8, !tbaa !8
  %84 = call i32 @mbedtls_cipher_update(ptr noundef %80, ptr noundef %81, i64 noundef %82, ptr noundef %83, ptr noundef %13)
  store i32 %84, ptr %12, align 4, !tbaa !17
  %85 = icmp ne i32 %84, 0
  br i1 %85, label %86, label %87

86:                                               ; preds = %75
  br label %91

87:                                               ; preds = %75
  %88 = load ptr, ptr %5, align 8, !tbaa !8
  %89 = load ptr, ptr %7, align 8, !tbaa !8
  %90 = load i64, ptr %14, align 8, !tbaa !10
  call void @llvm.memcpy.p0.p0.i64(ptr align 1 %88, ptr align 1 %89, i64 %90, i1 false)
  br label %91

91:                                               ; preds = %87, %86
  %92 = getelementptr inbounds [16 x i8], ptr %9, i64 0, i64 0
  call void @mbedtls_platform_zeroize(ptr noundef %92, i64 noundef 16)
  %93 = getelementptr inbounds [16 x i8], ptr %10, i64 0, i64 0
  call void @mbedtls_platform_zeroize(ptr noundef %93, i64 noundef 16)
  %94 = load ptr, ptr %6, align 8, !tbaa !18
  %95 = getelementptr inbounds nuw %struct.mbedtls_cmac_context_t, ptr %94, i32 0, i32 2
  store i64 0, ptr %95, align 8, !tbaa !21
  %96 = load ptr, ptr %6, align 8, !tbaa !18
  %97 = getelementptr inbounds nuw %struct.mbedtls_cmac_context_t, ptr %96, i32 0, i32 1
  %98 = getelementptr inbounds [16 x i8], ptr %97, i64 0, i64 0
  call void @mbedtls_platform_zeroize(ptr noundef %98, i64 noundef 16)
  %99 = load ptr, ptr %7, align 8, !tbaa !8
  call void @mbedtls_platform_zeroize(ptr noundef %99, i64 noundef 16)
  %100 = load i32, ptr %12, align 4, !tbaa !17
  store i32 %100, ptr %3, align 4
  store i32 1, ptr %15, align 4
  br label %101

101:                                              ; preds = %91, %31
  call void @llvm.lifetime.end.p0(i64 8, ptr %14) #11
  call void @llvm.lifetime.end.p0(i64 8, ptr %13) #11
  call void @llvm.lifetime.end.p0(i64 4, ptr %12) #11
  call void @llvm.lifetime.end.p0(i64 16, ptr %11) #11
  call void @llvm.lifetime.end.p0(i64 16, ptr %10) #11
  call void @llvm.lifetime.end.p0(i64 16, ptr %9) #11
  call void @llvm.lifetime.end.p0(i64 8, ptr %8) #11
  call void @llvm.lifetime.end.p0(i64 8, ptr %7) #11
  call void @llvm.lifetime.end.p0(i64 8, ptr %6) #11
  %102 = load i32, ptr %3, align 4
  ret i32 %102
}