; Function Attrs: nounwind uwtable
define hidden i32 @mbedtls_cipher_cmac_finish(ptr noundef %0, ptr noundef writeonly %1) local_unnamed_addr #0 {
  %3 = alloca [16 x i8], align 16
  %4 = alloca [16 x i8], align 16
  %5 = alloca [16 x i8], align 16
  %6 = alloca i64, align 8
  call void @llvm.lifetime.start.p0(i64 16, ptr nonnull %3) #13
  call void @llvm.lifetime.start.p0(i64 16, ptr nonnull %4) #13
  call void @llvm.lifetime.start.p0(i64 16, ptr nonnull %5) #13
  call void @llvm.lifetime.start.p0(i64 8, ptr nonnull %6) #13
  %7 = icmp eq ptr %0, null
  %.0.i3959.sroa.gep = getelementptr inbounds nuw i8, ptr %5, i64 8
  %.0.i3959.sroa.gep93 = getelementptr inbounds nuw i8, ptr %3, i64 8
  br i1 %7, label %78, label %8

8:                                                ; preds = %2
  %9 = load ptr, ptr %0, align 8, !tbaa !3
  %10 = icmp eq ptr %9, null
  br i1 %10, label %78, label %11

11:                                               ; preds = %8
  %12 = getelementptr inbounds nuw i8, ptr %0, i64 88
  %13 = load ptr, ptr %12, align 8, !tbaa !12
  %14 = icmp eq ptr %13, null
  %15 = icmp eq ptr %1, null
  %or.cond = or i1 %15, %14
  br i1 %or.cond, label %78, label %mbedtls_cipher_info_get_block_size.exit

mbedtls_cipher_info_get_block_size.exit:          ; preds = %11
  %16 = getelementptr inbounds nuw i8, ptr %9, i64 8
  %17 = load i32, ptr %16, align 8
  %18 = and i32 %17, 31
  %19 = zext nneg i32 %18 to i64
  %20 = icmp samesign ult i32 %18, 17
  tail call void @llvm.assume(i1 %20)
  call void @mbedtls_platform_zeroize(ptr noundef nonnull %3, i64 noundef 16) #13
  call void @mbedtls_platform_zeroize(ptr noundef nonnull %4, i64 noundef 16) #13
  %21 = call fastcc i32 @cmac_generate_subkeys(ptr noundef %0, ptr noundef %3, ptr noundef %4)
  %22 = getelementptr inbounds nuw i8, ptr %13, i64 16
  %23 = getelementptr inbounds nuw i8, ptr %13, i64 32
  %24 = load i64, ptr %23, align 8, !tbaa !13
  %25 = icmp ult i64 %24, %19
  br i1 %25, label %.lr.ph.preheader.i, label %.preheader57

.preheader57:                                     ; preds = %mbedtls_cipher_info_get_block_size.exit
  %.not.i4058 = icmp samesign ult i32 %18, 8
  br i1 %.not.i4058, label %.preheader55, label %.lr.ph

.lr.ph.preheader.i:                               ; preds = %mbedtls_cipher_info_get_block_size.exit
  %26 = getelementptr inbounds nuw i8, ptr %5, i64 %24
  br label %.lr.ph.i

.lr.ph.i:                                         ; preds = %37, %.lr.ph.preheader.i
  %.015.i = phi i64 [ %38, %37 ], [ 0, %.lr.ph.preheader.i ]
  %27 = icmp samesign ult i64 %.015.i, %24
  br i1 %27, label %28, label %32

28:                                               ; preds = %.lr.ph.i
  %29 = getelementptr inbounds nuw i8, ptr %22, i64 %.015.i
  %30 = load i8, ptr %29, align 1, !tbaa !17
  %31 = getelementptr inbounds nuw i8, ptr %5, i64 %.015.i
  store i8 %30, ptr %31, align 1, !tbaa !17
  br label %37

32:                                               ; preds = %.lr.ph.i
  %33 = icmp eq i64 %.015.i, %24
  br i1 %33, label %34, label %35

34:                                               ; preds = %32
  store i8 -128, ptr %26, align 1, !tbaa !17
  br label %37

35:                                               ; preds = %32
  %36 = getelementptr inbounds nuw i8, ptr %5, i64 %.015.i
  store i8 0, ptr %36, align 1, !tbaa !17
  br label %37

37:                                               ; preds = %35, %34, %28
  %38 = add nuw nsw i64 %.015.i, 1
  %exitcond.not.i = icmp eq i64 %38, %19
  br i1 %exitcond.not.i, label %cmac_pad.exit.preheader, label %.lr.ph.i, !llvm.loop !20

cmac_pad.exit.preheader:                          ; preds = %37
  %.not.i62 = icmp samesign ult i32 %18, 8
  br i1 %.not.i62, label %.preheader54, label %cmac_pad.exit

.preheader54:                                     ; preds = %cmac_pad.exit, %cmac_pad.exit.preheader
  %.0.i.lcssa = phi i64 [ 0, %cmac_pad.exit.preheader ], [ %40, %cmac_pad.exit ]
  %39 = icmp samesign ult i64 %.0.i.lcssa, %19
  br i1 %39, label %.lr.ph67, label %mbedtls_xor.exit

cmac_pad.exit:                                    ; preds = %cmac_pad.exit.preheader, %cmac_pad.exit
  %40 = phi i64 [ %44, %cmac_pad.exit ], [ 8, %cmac_pad.exit.preheader ]
  %.0.i63 = phi i64 [ %40, %cmac_pad.exit ], [ 0, %cmac_pad.exit.preheader ]
  %41 = getelementptr inbounds nuw i8, ptr %5, i64 %.0.i63
  %.0.copyload.i51 = load i64, ptr %41, align 8
  %42 = getelementptr inbounds nuw i8, ptr %4, i64 %.0.i63
  %.0.copyload.i50 = load i64, ptr %42, align 8
  %43 = xor i64 %.0.copyload.i50, %.0.copyload.i51
  store i64 %43, ptr %41, align 8
  %44 = add nuw nsw i64 %40, 8
  %.not.i = icmp samesign ugt i64 %44, %19
  br i1 %.not.i, label %.preheader54, label %cmac_pad.exit, !llvm.loop !21

.lr.ph67:                                         ; preds = %.preheader54, %.lr.ph67
  %.1.i66 = phi i64 [ %50, %.lr.ph67 ], [ %.0.i.lcssa, %.preheader54 ]
  %45 = getelementptr inbounds nuw i8, ptr %5, i64 %.1.i66
  %46 = load i8, ptr %45, align 1, !tbaa !17
  %47 = getelementptr inbounds nuw i8, ptr %4, i64 %.1.i66
  %48 = load i8, ptr %47, align 1, !tbaa !17
  %49 = xor i8 %48, %46
  store i8 %49, ptr %45, align 1, !tbaa !17
  %50 = add nuw nsw i64 %.1.i66, 1
  %exitcond78.not = icmp eq i64 %50, %19
  br i1 %exitcond78.not, label %mbedtls_xor.exit, label %.lr.ph67, !llvm.loop !22

.preheader55:                                     ; preds = %.lr.ph, %.preheader57
  %.0.i39.lcssa = phi i64 [ 0, %.preheader57 ], [ %52, %.lr.ph ]
  %51 = icmp samesign ult i64 %.0.i39.lcssa, %19
  br i1 %51, label %.lr.ph61, label %mbedtls_xor.exit

.lr.ph:                                           ; preds = %.preheader57, %.lr.ph
  %52 = phi i64 [ %55, %.lr.ph ], [ 8, %.preheader57 ]
  %.0.i3959.sroa.phi = phi ptr [ %.0.i3959.sroa.gep, %.lr.ph ], [ %5, %.preheader57 ]
  %.0.i3959.sroa.phi92 = phi ptr [ %.0.i3959.sroa.gep93, %.lr.ph ], [ %3, %.preheader57 ]
  %.0.i3959 = phi i64 [ 8, %.lr.ph ], [ 0, %.preheader57 ]
  %53 = getelementptr inbounds nuw i8, ptr %22, i64 %.0.i3959
  %.0.copyload.i49 = load i64, ptr %53, align 1
  %.0.copyload.i48 = load i64, ptr %.0.i3959.sroa.phi92, align 8
  %54 = xor i64 %.0.copyload.i48, %.0.copyload.i49
  store i64 %54, ptr %.0.i3959.sroa.phi, align 8
  %55 = add nuw nsw i64 %52, 8
  %.not.i40 = icmp samesign ugt i64 %55, %19
  br i1 %.not.i40, label %.preheader55, label %.lr.ph, !llvm.loop !21

.lr.ph61:                                         ; preds = %.preheader55, %.lr.ph61
  %.1.i4160 = phi i64 [ %62, %.lr.ph61 ], [ %.0.i39.lcssa, %.preheader55 ]
  %56 = getelementptr inbounds nuw i8, ptr %22, i64 %.1.i4160
  %57 = load i8, ptr %56, align 1, !tbaa !17
  %58 = getelementptr inbounds nuw i8, ptr %3, i64 %.1.i4160
  %59 = load i8, ptr %58, align 1, !tbaa !17
  %60 = xor i8 %59, %57
  %61 = getelementptr inbounds nuw i8, ptr %5, i64 %.1.i4160
  store i8 %60, ptr %61, align 1, !tbaa !17
  %62 = add nuw nsw i64 %.1.i4160, 1
  %exitcond.not = icmp eq i64 %62, %19
  br i1 %exitcond.not, label %mbedtls_xor.exit, label %.lr.ph61, !llvm.loop !22

mbedtls_xor.exit:                                 ; preds = %.lr.ph61, %.lr.ph67, %.preheader55, %.preheader54
  %.not.i4468 = icmp samesign ult i32 %18, 8
  br i1 %.not.i4468, label %.preheader, label %.lr.ph70

.preheader:                                       ; preds = %.lr.ph70, %mbedtls_xor.exit
  %.0.i43.lcssa = phi i64 [ 0, %mbedtls_xor.exit ], [ %64, %.lr.ph70 ]
  %63 = icmp samesign ult i64 %.0.i43.lcssa, %19
  br i1 %63, label %.lr.ph73, label %mbedtls_xor.exit46

.lr.ph70:                                         ; preds = %mbedtls_xor.exit, %.lr.ph70
  %64 = phi i64 [ %68, %.lr.ph70 ], [ 8, %mbedtls_xor.exit ]
  %.0.i4369 = phi i64 [ %64, %.lr.ph70 ], [ 0, %mbedtls_xor.exit ]
  %65 = getelementptr inbounds nuw i8, ptr %5, i64 %.0.i4369
  %.0.copyload.i47 = load i64, ptr %65, align 8
  %66 = getelementptr inbounds nuw i8, ptr %13, i64 %.0.i4369
  %.0.copyload.i = load i64, ptr %66, align 1
  %67 = xor i64 %.0.copyload.i, %.0.copyload.i47
  store i64 %67, ptr %66, align 1
  %68 = add nuw nsw i64 %64, 8
  %.not.i44 = icmp samesign ugt i64 %68, %19
  br i1 %.not.i44, label %.preheader, label %.lr.ph70, !llvm.loop !21

.lr.ph73:                                         ; preds = %.preheader, %.lr.ph73
  %.1.i4572 = phi i64 [ %74, %.lr.ph73 ], [ %.0.i43.lcssa, %.preheader ]
  %69 = getelementptr inbounds nuw i8, ptr %5, i64 %.1.i4572
  %70 = load i8, ptr %69, align 1, !tbaa !17
  %71 = getelementptr inbounds nuw i8, ptr %13, i64 %.1.i4572
  %72 = load i8, ptr %71, align 1, !tbaa !17
  %73 = xor i8 %72, %70
  store i8 %73, ptr %71, align 1, !tbaa !17
  %74 = add nuw nsw i64 %.1.i4572, 1
  %exitcond79.not = icmp eq i64 %74, %19
  br i1 %exitcond79.not, label %mbedtls_xor.exit46, label %.lr.ph73, !llvm.loop !22

mbedtls_xor.exit46:                               ; preds = %.lr.ph73, %.preheader
  %75 = call i32 @mbedtls_cipher_update(ptr noundef nonnull %0, ptr noundef nonnull %13, i64 noundef %19, ptr noundef nonnull %13, ptr noundef nonnull %6) #13
  %.not = icmp eq i32 %75, 0
  br i1 %.not, label %76, label %77

76:                                               ; preds = %mbedtls_xor.exit46
  call void @llvm.memcpy.p0.p0.i64(ptr align 1 %1, ptr nonnull align 1 %13, i64 %19, i1 false)
  br label %77

77:                                               ; preds = %mbedtls_xor.exit46, %76
  call void @mbedtls_platform_zeroize(ptr noundef nonnull %3, i64 noundef 16) #13
  call void @mbedtls_platform_zeroize(ptr noundef nonnull %4, i64 noundef 16) #13
  store i64 0, ptr %23, align 8, !tbaa !13
  call void @mbedtls_platform_zeroize(ptr noundef nonnull %22, i64 noundef 16) #13
  call void @mbedtls_platform_zeroize(ptr noundef nonnull %13, i64 noundef 16) #13
  br label %78

78:                                               ; preds = %2, %8, %11, %77
  %.0 = phi i32 [ %75, %77 ], [ -24832, %11 ], [ -24832, %8 ], [ -24832, %2 ]
  call void @llvm.lifetime.end.p0(i64 8, ptr nonnull %6) #13
  call void @llvm.lifetime.end.p0(i64 16, ptr nonnull %5) #13
  call void @llvm.lifetime.end.p0(i64 16, ptr nonnull %4) #13
  call void @llvm.lifetime.end.p0(i64 16, ptr nonnull %3) #13
  ret i32 %.0
}